
instruction_test_bltu.elf:     file format elf64-littleriscv


Disassembly of section .text:

0000000000000000 <_start>:
   0:	00000513          	addi	a0,zero,0
   4:	002d3437          	lui	s0,0x2d3
   8:	d2d4041b          	addiw	s0,s0,-723
   c:	00c41413          	slli	s0,s0,0xc
  10:	2d340413          	addi	s0,s0,723 # 2d32d3 <__global_pointer$+0x2d13f6>
  14:	00c41413          	slli	s0,s0,0xc
  18:	d2d40413          	addi	s0,s0,-723
  1c:	00d41413          	slli	s0,s0,0xd
  20:	5a540413          	addi	s0,s0,1445
  24:	0052d4b7          	lui	s1,0x52d
  28:	2d34849b          	addiw	s1,s1,723
  2c:	00c49493          	slli	s1,s1,0xc
  30:	d2d48493          	addi	s1,s1,-723 # 52cd2d <__global_pointer$+0x52ae50>
  34:	00c49493          	slli	s1,s1,0xc
  38:	2d348493          	addi	s1,s1,723
  3c:	00d49493          	slli	s1,s1,0xd
  40:	a5a48493          	addi	s1,s1,-1446
  44:	00946663          	bltu	s0,s1,50 <L01_t>
  48:	00000513          	addi	a0,zero,0
  4c:	00000067          	jalr	zero,0(zero) # 0 <_start>

0000000000000050 <L01_t>:
  50:	fd2d3437          	lui	s0,0xfd2d3
  54:	d2d4041b          	addiw	s0,s0,-723
  58:	00c41413          	slli	s0,s0,0xc
  5c:	2d340413          	addi	s0,s0,723 # fffffffffd2d32d3 <__global_pointer$+0xfffffffffd2d13f6>
  60:	00c41413          	slli	s0,s0,0xc
  64:	d2d40413          	addi	s0,s0,-723
  68:	00d41413          	slli	s0,s0,0xd
  6c:	5a540413          	addi	s0,s0,1445
  70:	fd52b4b7          	lui	s1,0xfd52b
  74:	d534849b          	addiw	s1,s1,-685
  78:	00c49493          	slli	s1,s1,0xc
  7c:	ad548493          	addi	s1,s1,-1323 # fffffffffd52aad5 <__global_pointer$+0xfffffffffd528bf8>
  80:	00d49493          	slli	s1,s1,0xd
  84:	55b48493          	addi	s1,s1,1371
  88:	00c49493          	slli	s1,s1,0xc
  8c:	a5548493          	addi	s1,s1,-1451
  90:	00946663          	bltu	s0,s1,9c <L02_t>
  94:	00000513          	addi	a0,zero,0
  98:	00000067          	jalr	zero,0(zero) # 0 <_start>

000000000000009c <L02_t>:
  9c:	02d2d437          	lui	s0,0x2d2d
  a0:	2d34041b          	addiw	s0,s0,723
  a4:	00c41413          	slli	s0,s0,0xc
  a8:	d2d40413          	addi	s0,s0,-723 # 2d2cd2d <__global_pointer$+0x2d2ae50>
  ac:	00c41413          	slli	s0,s0,0xc
  b0:	2d340413          	addi	s0,s0,723
  b4:	00d41413          	slli	s0,s0,0xd
  b8:	a5a40413          	addi	s0,s0,-1446
  bc:	fd2d34b7          	lui	s1,0xfd2d3
  c0:	d2d4849b          	addiw	s1,s1,-723
  c4:	00c49493          	slli	s1,s1,0xc
  c8:	2d348493          	addi	s1,s1,723 # fffffffffd2d32d3 <__global_pointer$+0xfffffffffd2d13f6>
  cc:	00c49493          	slli	s1,s1,0xc
  d0:	d2d48493          	addi	s1,s1,-723
  d4:	00d49493          	slli	s1,s1,0xd
  d8:	5a548493          	addi	s1,s1,1445
  dc:	00946663          	bltu	s0,s1,e8 <L03_t>
  e0:	00000513          	addi	a0,zero,0
  e4:	00000067          	jalr	zero,0(zero) # 0 <_start>

00000000000000e8 <L03_t>:
  e8:	00000413          	addi	s0,zero,0
  ec:	02d2d4b7          	lui	s1,0x2d2d
  f0:	2d34849b          	addiw	s1,s1,723
  f4:	00c49493          	slli	s1,s1,0xc
  f8:	d2d48493          	addi	s1,s1,-723 # 2d2cd2d <__global_pointer$+0x2d2ae50>
  fc:	00c49493          	slli	s1,s1,0xc
 100:	2d348493          	addi	s1,s1,723
 104:	00d49493          	slli	s1,s1,0xd
 108:	a5a48493          	addi	s1,s1,-1446
 10c:	00946663          	bltu	s0,s1,118 <L04_t>
 110:	00000513          	addi	a0,zero,0
 114:	00000067          	jalr	zero,0(zero) # 0 <_start>

0000000000000118 <L04_t>:
 118:	00000413          	addi	s0,zero,0
 11c:	fd2d34b7          	lui	s1,0xfd2d3
 120:	d2d4849b          	addiw	s1,s1,-723
 124:	00c49493          	slli	s1,s1,0xc
 128:	2d348493          	addi	s1,s1,723 # fffffffffd2d32d3 <__global_pointer$+0xfffffffffd2d13f6>
 12c:	00c49493          	slli	s1,s1,0xc
 130:	d2d48493          	addi	s1,s1,-723
 134:	00d49493          	slli	s1,s1,0xd
 138:	5a548493          	addi	s1,s1,1445
 13c:	00946663          	bltu	s0,s1,148 <L05_t>
 140:	00000513          	addi	a0,zero,0
 144:	00000067          	jalr	zero,0(zero) # 0 <_start>

0000000000000148 <L05_t>:
 148:	0052d437          	lui	s0,0x52d
 14c:	2d34041b          	addiw	s0,s0,723
 150:	00c41413          	slli	s0,s0,0xc
 154:	d2d40413          	addi	s0,s0,-723 # 52cd2d <__global_pointer$+0x52ae50>
 158:	00c41413          	slli	s0,s0,0xc
 15c:	2d340413          	addi	s0,s0,723
 160:	00d41413          	slli	s0,s0,0xd
 164:	a5a40413          	addi	s0,s0,-1446
 168:	002d34b7          	lui	s1,0x2d3
 16c:	d2d4849b          	addiw	s1,s1,-723
 170:	00c49493          	slli	s1,s1,0xc
 174:	2d348493          	addi	s1,s1,723 # 2d32d3 <__global_pointer$+0x2d13f6>
 178:	00c49493          	slli	s1,s1,0xc
 17c:	d2d48493          	addi	s1,s1,-723
 180:	00d49493          	slli	s1,s1,0xd
 184:	5a548493          	addi	s1,s1,1445
 188:	00946463          	bltu	s0,s1,190 <L11_t>
 18c:	00c0006f          	jal	zero,198 <L11>

0000000000000190 <L11_t>:
 190:	00000513          	addi	a0,zero,0
 194:	00000067          	jalr	zero,0(zero) # 0 <_start>

0000000000000198 <L11>:
 198:	fd52b437          	lui	s0,0xfd52b
 19c:	d534041b          	addiw	s0,s0,-685
 1a0:	00c41413          	slli	s0,s0,0xc
 1a4:	ad540413          	addi	s0,s0,-1323 # fffffffffd52aad5 <__global_pointer$+0xfffffffffd528bf8>
 1a8:	00d41413          	slli	s0,s0,0xd
 1ac:	55b40413          	addi	s0,s0,1371
 1b0:	00c41413          	slli	s0,s0,0xc
 1b4:	a5540413          	addi	s0,s0,-1451
 1b8:	fd2d34b7          	lui	s1,0xfd2d3
 1bc:	d2d4849b          	addiw	s1,s1,-723
 1c0:	00c49493          	slli	s1,s1,0xc
 1c4:	2d348493          	addi	s1,s1,723 # fffffffffd2d32d3 <__global_pointer$+0xfffffffffd2d13f6>
 1c8:	00c49493          	slli	s1,s1,0xc
 1cc:	d2d48493          	addi	s1,s1,-723
 1d0:	00d49493          	slli	s1,s1,0xd
 1d4:	5a548493          	addi	s1,s1,1445
 1d8:	00946463          	bltu	s0,s1,1e0 <L12_t>
 1dc:	00c0006f          	jal	zero,1e8 <L12>

00000000000001e0 <L12_t>:
 1e0:	00000513          	addi	a0,zero,0
 1e4:	00000067          	jalr	zero,0(zero) # 0 <_start>

00000000000001e8 <L12>:
 1e8:	fd2d3437          	lui	s0,0xfd2d3
 1ec:	d2d4041b          	addiw	s0,s0,-723
 1f0:	00c41413          	slli	s0,s0,0xc
 1f4:	2d340413          	addi	s0,s0,723 # fffffffffd2d32d3 <__global_pointer$+0xfffffffffd2d13f6>
 1f8:	00c41413          	slli	s0,s0,0xc
 1fc:	d2d40413          	addi	s0,s0,-723
 200:	00d41413          	slli	s0,s0,0xd
 204:	5a540413          	addi	s0,s0,1445
 208:	02d2d4b7          	lui	s1,0x2d2d
 20c:	2d34849b          	addiw	s1,s1,723
 210:	00c49493          	slli	s1,s1,0xc
 214:	d2d48493          	addi	s1,s1,-723 # 2d2cd2d <__global_pointer$+0x2d2ae50>
 218:	00c49493          	slli	s1,s1,0xc
 21c:	2d348493          	addi	s1,s1,723
 220:	00d49493          	slli	s1,s1,0xd
 224:	a5a48493          	addi	s1,s1,-1446
 228:	00946463          	bltu	s0,s1,230 <L13_t>
 22c:	00c0006f          	jal	zero,238 <L13>

0000000000000230 <L13_t>:
 230:	00000513          	addi	a0,zero,0
 234:	00000067          	jalr	zero,0(zero) # 0 <_start>

0000000000000238 <L13>:
 238:	02d2d437          	lui	s0,0x2d2d
 23c:	2d34041b          	addiw	s0,s0,723
 240:	00c41413          	slli	s0,s0,0xc
 244:	d2d40413          	addi	s0,s0,-723 # 2d2cd2d <__global_pointer$+0x2d2ae50>
 248:	00c41413          	slli	s0,s0,0xc
 24c:	2d340413          	addi	s0,s0,723
 250:	00d41413          	slli	s0,s0,0xd
 254:	a5a40413          	addi	s0,s0,-1446
 258:	00000493          	addi	s1,zero,0
 25c:	00946463          	bltu	s0,s1,264 <L14_t>
 260:	00c0006f          	jal	zero,26c <L14>

0000000000000264 <L14_t>:
 264:	00000513          	addi	a0,zero,0
 268:	00000067          	jalr	zero,0(zero) # 0 <_start>

000000000000026c <L14>:
 26c:	fd2d3437          	lui	s0,0xfd2d3
 270:	d2d4041b          	addiw	s0,s0,-723
 274:	00c41413          	slli	s0,s0,0xc
 278:	2d340413          	addi	s0,s0,723 # fffffffffd2d32d3 <__global_pointer$+0xfffffffffd2d13f6>
 27c:	00c41413          	slli	s0,s0,0xc
 280:	d2d40413          	addi	s0,s0,-723
 284:	00d41413          	slli	s0,s0,0xd
 288:	5a540413          	addi	s0,s0,1445
 28c:	00000493          	addi	s1,zero,0
 290:	00946463          	bltu	s0,s1,298 <L15_t>
 294:	00c0006f          	jal	zero,2a0 <L15>

0000000000000298 <L15_t>:
 298:	00000513          	addi	a0,zero,0
 29c:	00000067          	jalr	zero,0(zero) # 0 <_start>

00000000000002a0 <L15>:
 2a0:	02d2d437          	lui	s0,0x2d2d
 2a4:	2d34041b          	addiw	s0,s0,723
 2a8:	00c41413          	slli	s0,s0,0xc
 2ac:	d2d40413          	addi	s0,s0,-723 # 2d2cd2d <__global_pointer$+0x2d2ae50>
 2b0:	00c41413          	slli	s0,s0,0xc
 2b4:	2d340413          	addi	s0,s0,723
 2b8:	00d41413          	slli	s0,s0,0xd
 2bc:	a5a40413          	addi	s0,s0,-1446
 2c0:	02d2d4b7          	lui	s1,0x2d2d
 2c4:	2d34849b          	addiw	s1,s1,723
 2c8:	00c49493          	slli	s1,s1,0xc
 2cc:	d2d48493          	addi	s1,s1,-723 # 2d2cd2d <__global_pointer$+0x2d2ae50>
 2d0:	00c49493          	slli	s1,s1,0xc
 2d4:	2d348493          	addi	s1,s1,723
 2d8:	00d49493          	slli	s1,s1,0xd
 2dc:	a5a48493          	addi	s1,s1,-1446
 2e0:	00946463          	bltu	s0,s1,2e8 <L16_t>
 2e4:	00c0006f          	jal	zero,2f0 <L16>

00000000000002e8 <L16_t>:
 2e8:	00000513          	addi	a0,zero,0
 2ec:	00000067          	jalr	zero,0(zero) # 0 <_start>

00000000000002f0 <L16>:
 2f0:	fd2d3437          	lui	s0,0xfd2d3
 2f4:	d2d4041b          	addiw	s0,s0,-723
 2f8:	00c41413          	slli	s0,s0,0xc
 2fc:	2d340413          	addi	s0,s0,723 # fffffffffd2d32d3 <__global_pointer$+0xfffffffffd2d13f6>
 300:	00c41413          	slli	s0,s0,0xc
 304:	d2d40413          	addi	s0,s0,-723
 308:	00d41413          	slli	s0,s0,0xd
 30c:	5a540413          	addi	s0,s0,1445
 310:	fd2d34b7          	lui	s1,0xfd2d3
 314:	d2d4849b          	addiw	s1,s1,-723
 318:	00c49493          	slli	s1,s1,0xc
 31c:	2d348493          	addi	s1,s1,723 # fffffffffd2d32d3 <__global_pointer$+0xfffffffffd2d13f6>
 320:	00c49493          	slli	s1,s1,0xc
 324:	d2d48493          	addi	s1,s1,-723
 328:	00d49493          	slli	s1,s1,0xd
 32c:	5a548493          	addi	s1,s1,1445
 330:	00946463          	bltu	s0,s1,338 <L17_t>
 334:	00c0006f          	jal	zero,340 <L17>

0000000000000338 <L17_t>:
 338:	00000513          	addi	a0,zero,0
 33c:	00000067          	jalr	zero,0(zero) # 0 <_start>

0000000000000340 <L17>:
 340:	00000413          	addi	s0,zero,0
 344:	00000493          	addi	s1,zero,0
 348:	00946463          	bltu	s0,s1,350 <L18_t>
 34c:	00c0006f          	jal	zero,358 <L18>

0000000000000350 <L18_t>:
 350:	00000513          	addi	a0,zero,0
 354:	00000067          	jalr	zero,0(zero) # 0 <_start>

0000000000000358 <L18>:
 358:	0080006f          	jal	zero,360 <L21>

000000000000035c <L21_t>:
 35c:	0500006f          	jal	zero,3ac <L21_e>

0000000000000360 <L21>:
 360:	002d3437          	lui	s0,0x2d3
 364:	d2d4041b          	addiw	s0,s0,-723
 368:	00c41413          	slli	s0,s0,0xc
 36c:	2d340413          	addi	s0,s0,723 # 2d32d3 <__global_pointer$+0x2d13f6>
 370:	00c41413          	slli	s0,s0,0xc
 374:	d2d40413          	addi	s0,s0,-723
 378:	00d41413          	slli	s0,s0,0xd
 37c:	5a540413          	addi	s0,s0,1445
 380:	0052d4b7          	lui	s1,0x52d
 384:	2d34849b          	addiw	s1,s1,723
 388:	00c49493          	slli	s1,s1,0xc
 38c:	d2d48493          	addi	s1,s1,-723 # 52cd2d <__global_pointer$+0x52ae50>
 390:	00c49493          	slli	s1,s1,0xc
 394:	2d348493          	addi	s1,s1,723
 398:	00d49493          	slli	s1,s1,0xd
 39c:	a5a48493          	addi	s1,s1,-1446
 3a0:	fa946ee3          	bltu	s0,s1,35c <L21_t>
 3a4:	00000513          	addi	a0,zero,0
 3a8:	00000067          	jalr	zero,0(zero) # 0 <_start>

00000000000003ac <L21_e>:
 3ac:	0080006f          	jal	zero,3b4 <L22>

00000000000003b0 <L22_t>:
 3b0:	0500006f          	jal	zero,400 <L22_e>

00000000000003b4 <L22>:
 3b4:	fd2d3437          	lui	s0,0xfd2d3
 3b8:	d2d4041b          	addiw	s0,s0,-723
 3bc:	00c41413          	slli	s0,s0,0xc
 3c0:	2d340413          	addi	s0,s0,723 # fffffffffd2d32d3 <__global_pointer$+0xfffffffffd2d13f6>
 3c4:	00c41413          	slli	s0,s0,0xc
 3c8:	d2d40413          	addi	s0,s0,-723
 3cc:	00d41413          	slli	s0,s0,0xd
 3d0:	5a540413          	addi	s0,s0,1445
 3d4:	fd52b4b7          	lui	s1,0xfd52b
 3d8:	d534849b          	addiw	s1,s1,-685
 3dc:	00c49493          	slli	s1,s1,0xc
 3e0:	ad548493          	addi	s1,s1,-1323 # fffffffffd52aad5 <__global_pointer$+0xfffffffffd528bf8>
 3e4:	00d49493          	slli	s1,s1,0xd
 3e8:	55b48493          	addi	s1,s1,1371
 3ec:	00c49493          	slli	s1,s1,0xc
 3f0:	a5548493          	addi	s1,s1,-1451
 3f4:	fa946ee3          	bltu	s0,s1,3b0 <L22_t>
 3f8:	00000513          	addi	a0,zero,0
 3fc:	00000067          	jalr	zero,0(zero) # 0 <_start>

0000000000000400 <L22_e>:
 400:	0080006f          	jal	zero,408 <L23>

0000000000000404 <L23_t>:
 404:	0500006f          	jal	zero,454 <L23_e>

0000000000000408 <L23>:
 408:	02d2d437          	lui	s0,0x2d2d
 40c:	2d34041b          	addiw	s0,s0,723
 410:	00c41413          	slli	s0,s0,0xc
 414:	d2d40413          	addi	s0,s0,-723 # 2d2cd2d <__global_pointer$+0x2d2ae50>
 418:	00c41413          	slli	s0,s0,0xc
 41c:	2d340413          	addi	s0,s0,723
 420:	00d41413          	slli	s0,s0,0xd
 424:	a5a40413          	addi	s0,s0,-1446
 428:	fd2d34b7          	lui	s1,0xfd2d3
 42c:	d2d4849b          	addiw	s1,s1,-723
 430:	00c49493          	slli	s1,s1,0xc
 434:	2d348493          	addi	s1,s1,723 # fffffffffd2d32d3 <__global_pointer$+0xfffffffffd2d13f6>
 438:	00c49493          	slli	s1,s1,0xc
 43c:	d2d48493          	addi	s1,s1,-723
 440:	00d49493          	slli	s1,s1,0xd
 444:	5a548493          	addi	s1,s1,1445
 448:	fa946ee3          	bltu	s0,s1,404 <L23_t>
 44c:	00000513          	addi	a0,zero,0
 450:	00000067          	jalr	zero,0(zero) # 0 <_start>

0000000000000454 <L23_e>:
 454:	0080006f          	jal	zero,45c <L24>

0000000000000458 <L24_t>:
 458:	0340006f          	jal	zero,48c <L24_e>

000000000000045c <L24>:
 45c:	00000413          	addi	s0,zero,0
 460:	02d2d4b7          	lui	s1,0x2d2d
 464:	2d34849b          	addiw	s1,s1,723
 468:	00c49493          	slli	s1,s1,0xc
 46c:	d2d48493          	addi	s1,s1,-723 # 2d2cd2d <__global_pointer$+0x2d2ae50>
 470:	00c49493          	slli	s1,s1,0xc
 474:	2d348493          	addi	s1,s1,723
 478:	00d49493          	slli	s1,s1,0xd
 47c:	a5a48493          	addi	s1,s1,-1446
 480:	fc946ce3          	bltu	s0,s1,458 <L24_t>
 484:	00000513          	addi	a0,zero,0
 488:	00000067          	jalr	zero,0(zero) # 0 <_start>

000000000000048c <L24_e>:
 48c:	0080006f          	jal	zero,494 <L25>

0000000000000490 <L25_t>:
 490:	0340006f          	jal	zero,4c4 <L25_e>

0000000000000494 <L25>:
 494:	00000413          	addi	s0,zero,0
 498:	fd2d34b7          	lui	s1,0xfd2d3
 49c:	d2d4849b          	addiw	s1,s1,-723
 4a0:	00c49493          	slli	s1,s1,0xc
 4a4:	2d348493          	addi	s1,s1,723 # fffffffffd2d32d3 <__global_pointer$+0xfffffffffd2d13f6>
 4a8:	00c49493          	slli	s1,s1,0xc
 4ac:	d2d48493          	addi	s1,s1,-723
 4b0:	00d49493          	slli	s1,s1,0xd
 4b4:	5a548493          	addi	s1,s1,1445
 4b8:	fc946ce3          	bltu	s0,s1,490 <L25_t>
 4bc:	00000513          	addi	a0,zero,0
 4c0:	00000067          	jalr	zero,0(zero) # 0 <_start>

00000000000004c4 <L25_e>:
 4c4:	00c0006f          	jal	zero,4d0 <L31>

00000000000004c8 <L31_t>:
 4c8:	00000513          	addi	a0,zero,0
 4cc:	00000067          	jalr	zero,0(zero) # 0 <_start>

00000000000004d0 <L31>:
 4d0:	0052d437          	lui	s0,0x52d
 4d4:	2d34041b          	addiw	s0,s0,723
 4d8:	00c41413          	slli	s0,s0,0xc
 4dc:	d2d40413          	addi	s0,s0,-723 # 52cd2d <__global_pointer$+0x52ae50>
 4e0:	00c41413          	slli	s0,s0,0xc
 4e4:	2d340413          	addi	s0,s0,723
 4e8:	00d41413          	slli	s0,s0,0xd
 4ec:	a5a40413          	addi	s0,s0,-1446
 4f0:	002d34b7          	lui	s1,0x2d3
 4f4:	d2d4849b          	addiw	s1,s1,-723
 4f8:	00c49493          	slli	s1,s1,0xc
 4fc:	2d348493          	addi	s1,s1,723 # 2d32d3 <__global_pointer$+0x2d13f6>
 500:	00c49493          	slli	s1,s1,0xc
 504:	d2d48493          	addi	s1,s1,-723
 508:	00d49493          	slli	s1,s1,0xd
 50c:	5a548493          	addi	s1,s1,1445
 510:	fa946ce3          	bltu	s0,s1,4c8 <L31_t>
 514:	00c0006f          	jal	zero,520 <L32>

0000000000000518 <L32_t>:
 518:	00000513          	addi	a0,zero,0
 51c:	00000067          	jalr	zero,0(zero) # 0 <_start>

0000000000000520 <L32>:
 520:	fd52b437          	lui	s0,0xfd52b
 524:	d534041b          	addiw	s0,s0,-685
 528:	00c41413          	slli	s0,s0,0xc
 52c:	ad540413          	addi	s0,s0,-1323 # fffffffffd52aad5 <__global_pointer$+0xfffffffffd528bf8>
 530:	00d41413          	slli	s0,s0,0xd
 534:	55b40413          	addi	s0,s0,1371
 538:	00c41413          	slli	s0,s0,0xc
 53c:	a5540413          	addi	s0,s0,-1451
 540:	fd2d34b7          	lui	s1,0xfd2d3
 544:	d2d4849b          	addiw	s1,s1,-723
 548:	00c49493          	slli	s1,s1,0xc
 54c:	2d348493          	addi	s1,s1,723 # fffffffffd2d32d3 <__global_pointer$+0xfffffffffd2d13f6>
 550:	00c49493          	slli	s1,s1,0xc
 554:	d2d48493          	addi	s1,s1,-723
 558:	00d49493          	slli	s1,s1,0xd
 55c:	5a548493          	addi	s1,s1,1445
 560:	fa946ce3          	bltu	s0,s1,518 <L32_t>
 564:	00c0006f          	jal	zero,570 <L33>

0000000000000568 <L33_t>:
 568:	00000513          	addi	a0,zero,0
 56c:	00000067          	jalr	zero,0(zero) # 0 <_start>

0000000000000570 <L33>:
 570:	fd2d3437          	lui	s0,0xfd2d3
 574:	d2d4041b          	addiw	s0,s0,-723
 578:	00c41413          	slli	s0,s0,0xc
 57c:	2d340413          	addi	s0,s0,723 # fffffffffd2d32d3 <__global_pointer$+0xfffffffffd2d13f6>
 580:	00c41413          	slli	s0,s0,0xc
 584:	d2d40413          	addi	s0,s0,-723
 588:	00d41413          	slli	s0,s0,0xd
 58c:	5a540413          	addi	s0,s0,1445
 590:	02d2d4b7          	lui	s1,0x2d2d
 594:	2d34849b          	addiw	s1,s1,723
 598:	00c49493          	slli	s1,s1,0xc
 59c:	d2d48493          	addi	s1,s1,-723 # 2d2cd2d <__global_pointer$+0x2d2ae50>
 5a0:	00c49493          	slli	s1,s1,0xc
 5a4:	2d348493          	addi	s1,s1,723
 5a8:	00d49493          	slli	s1,s1,0xd
 5ac:	a5a48493          	addi	s1,s1,-1446
 5b0:	fa946ce3          	bltu	s0,s1,568 <L33_t>
 5b4:	00c0006f          	jal	zero,5c0 <L34>

00000000000005b8 <L34_t>:
 5b8:	00000513          	addi	a0,zero,0
 5bc:	00000067          	jalr	zero,0(zero) # 0 <_start>

00000000000005c0 <L34>:
 5c0:	02d2d437          	lui	s0,0x2d2d
 5c4:	2d34041b          	addiw	s0,s0,723
 5c8:	00c41413          	slli	s0,s0,0xc
 5cc:	d2d40413          	addi	s0,s0,-723 # 2d2cd2d <__global_pointer$+0x2d2ae50>
 5d0:	00c41413          	slli	s0,s0,0xc
 5d4:	2d340413          	addi	s0,s0,723
 5d8:	00d41413          	slli	s0,s0,0xd
 5dc:	a5a40413          	addi	s0,s0,-1446
 5e0:	00000493          	addi	s1,zero,0
 5e4:	fc946ae3          	bltu	s0,s1,5b8 <L34_t>
 5e8:	00c0006f          	jal	zero,5f4 <L35>

00000000000005ec <L35_t>:
 5ec:	00000513          	addi	a0,zero,0
 5f0:	00000067          	jalr	zero,0(zero) # 0 <_start>

00000000000005f4 <L35>:
 5f4:	fd2d3437          	lui	s0,0xfd2d3
 5f8:	d2d4041b          	addiw	s0,s0,-723
 5fc:	00c41413          	slli	s0,s0,0xc
 600:	2d340413          	addi	s0,s0,723 # fffffffffd2d32d3 <__global_pointer$+0xfffffffffd2d13f6>
 604:	00c41413          	slli	s0,s0,0xc
 608:	d2d40413          	addi	s0,s0,-723
 60c:	00d41413          	slli	s0,s0,0xd
 610:	5a540413          	addi	s0,s0,1445
 614:	00000493          	addi	s1,zero,0
 618:	fc946ae3          	bltu	s0,s1,5ec <L35_t>
 61c:	00c0006f          	jal	zero,628 <L36>

0000000000000620 <L36_t>:
 620:	00000513          	addi	a0,zero,0
 624:	00000067          	jalr	zero,0(zero) # 0 <_start>

0000000000000628 <L36>:
 628:	02d2d437          	lui	s0,0x2d2d
 62c:	2d34041b          	addiw	s0,s0,723
 630:	00c41413          	slli	s0,s0,0xc
 634:	d2d40413          	addi	s0,s0,-723 # 2d2cd2d <__global_pointer$+0x2d2ae50>
 638:	00c41413          	slli	s0,s0,0xc
 63c:	2d340413          	addi	s0,s0,723
 640:	00d41413          	slli	s0,s0,0xd
 644:	a5a40413          	addi	s0,s0,-1446
 648:	02d2d4b7          	lui	s1,0x2d2d
 64c:	2d34849b          	addiw	s1,s1,723
 650:	00c49493          	slli	s1,s1,0xc
 654:	d2d48493          	addi	s1,s1,-723 # 2d2cd2d <__global_pointer$+0x2d2ae50>
 658:	00c49493          	slli	s1,s1,0xc
 65c:	2d348493          	addi	s1,s1,723
 660:	00d49493          	slli	s1,s1,0xd
 664:	a5a48493          	addi	s1,s1,-1446
 668:	fa946ce3          	bltu	s0,s1,620 <L36_t>
 66c:	00c0006f          	jal	zero,678 <L37>

0000000000000670 <L37_t>:
 670:	00000513          	addi	a0,zero,0
 674:	00000067          	jalr	zero,0(zero) # 0 <_start>

0000000000000678 <L37>:
 678:	fd2d3437          	lui	s0,0xfd2d3
 67c:	d2d4041b          	addiw	s0,s0,-723
 680:	00c41413          	slli	s0,s0,0xc
 684:	2d340413          	addi	s0,s0,723 # fffffffffd2d32d3 <__global_pointer$+0xfffffffffd2d13f6>
 688:	00c41413          	slli	s0,s0,0xc
 68c:	d2d40413          	addi	s0,s0,-723
 690:	00d41413          	slli	s0,s0,0xd
 694:	5a540413          	addi	s0,s0,1445
 698:	fd2d34b7          	lui	s1,0xfd2d3
 69c:	d2d4849b          	addiw	s1,s1,-723
 6a0:	00c49493          	slli	s1,s1,0xc
 6a4:	2d348493          	addi	s1,s1,723 # fffffffffd2d32d3 <__global_pointer$+0xfffffffffd2d13f6>
 6a8:	00c49493          	slli	s1,s1,0xc
 6ac:	d2d48493          	addi	s1,s1,-723
 6b0:	00d49493          	slli	s1,s1,0xd
 6b4:	5a548493          	addi	s1,s1,1445
 6b8:	fa946ce3          	bltu	s0,s1,670 <L37_t>
 6bc:	00c0006f          	jal	zero,6c8 <L38>

00000000000006c0 <L38_t>:
 6c0:	00000513          	addi	a0,zero,0
 6c4:	00000067          	jalr	zero,0(zero) # 0 <_start>

00000000000006c8 <L38>:
 6c8:	00000413          	addi	s0,zero,0
 6cc:	00000493          	addi	s1,zero,0
 6d0:	fe9468e3          	bltu	s0,s1,6c0 <L38_t>
 6d4:	00100513          	addi	a0,zero,1

00000000000006d8 <_test_finish>:
 6d8:	00000067          	jalr	zero,0(zero) # 0 <_start>
	...
