
instruction_test_xori.elf:     file format elf64-littleriscv


Disassembly of section .text:

0000000000000000 <_start>:
   0:	00000513          	addi	a0,zero,0
   4:	02d2d2b7          	lui	t0,0x2d2d
   8:	2d32829b          	addiw	t0,t0,723
   c:	00c29293          	slli	t0,t0,0xc
  10:	d2d28293          	addi	t0,t0,-723 # 2d2cd2d <__global_pointer$+0x2d2b344>
  14:	00c29293          	slli	t0,t0,0xc
  18:	2d328293          	addi	t0,t0,723
  1c:	00d29293          	slli	t0,t0,0xd
  20:	a5a28293          	addi	t0,t0,-1446
  24:	0002c313          	xori	t1,t0,0
  28:	02d2d5b7          	lui	a1,0x2d2d
  2c:	2d35859b          	addiw	a1,a1,723
  30:	00c59593          	slli	a1,a1,0xc
  34:	d2d58593          	addi	a1,a1,-723 # 2d2cd2d <__global_pointer$+0x2d2b344>
  38:	00c59593          	slli	a1,a1,0xc
  3c:	2d358593          	addi	a1,a1,723
  40:	00d59593          	slli	a1,a1,0xd
  44:	a5a58593          	addi	a1,a1,-1446
  48:	18b31e63          	bne	t1,a1,1e4 <_test_finish>
  4c:	fd2d32b7          	lui	t0,0xfd2d3
  50:	d2d2829b          	addiw	t0,t0,-723
  54:	00c29293          	slli	t0,t0,0xc
  58:	2d328293          	addi	t0,t0,723 # fffffffffd2d32d3 <__global_pointer$+0xfffffffffd2d18ea>
  5c:	00c29293          	slli	t0,t0,0xc
  60:	d2d28293          	addi	t0,t0,-723
  64:	00d29293          	slli	t0,t0,0xd
  68:	5a528293          	addi	t0,t0,1445
  6c:	0002c313          	xori	t1,t0,0
  70:	fd2d35b7          	lui	a1,0xfd2d3
  74:	d2d5859b          	addiw	a1,a1,-723
  78:	00c59593          	slli	a1,a1,0xc
  7c:	2d358593          	addi	a1,a1,723 # fffffffffd2d32d3 <__global_pointer$+0xfffffffffd2d18ea>
  80:	00c59593          	slli	a1,a1,0xc
  84:	d2d58593          	addi	a1,a1,-723
  88:	00d59593          	slli	a1,a1,0xd
  8c:	5a558593          	addi	a1,a1,1445
  90:	14b31a63          	bne	t1,a1,1e4 <_test_finish>
  94:	02d2d2b7          	lui	t0,0x2d2d
  98:	2d32829b          	addiw	t0,t0,723
  9c:	00c29293          	slli	t0,t0,0xc
  a0:	d2d28293          	addi	t0,t0,-723 # 2d2cd2d <__global_pointer$+0x2d2b344>
  a4:	00c29293          	slli	t0,t0,0xc
  a8:	2d328293          	addi	t0,t0,723
  ac:	00d29293          	slli	t0,t0,0xd
  b0:	a5a28293          	addi	t0,t0,-1446
  b4:	00f2c313          	xori	t1,t0,15
  b8:	02d2d5b7          	lui	a1,0x2d2d
  bc:	2d35859b          	addiw	a1,a1,723
  c0:	00c59593          	slli	a1,a1,0xc
  c4:	d2d58593          	addi	a1,a1,-723 # 2d2cd2d <__global_pointer$+0x2d2b344>
  c8:	00c59593          	slli	a1,a1,0xc
  cc:	2d358593          	addi	a1,a1,723
  d0:	00d59593          	slli	a1,a1,0xd
  d4:	a5558593          	addi	a1,a1,-1451
  d8:	10b31663          	bne	t1,a1,1e4 <_test_finish>
  dc:	fd2d32b7          	lui	t0,0xfd2d3
  e0:	d2d2829b          	addiw	t0,t0,-723
  e4:	00c29293          	slli	t0,t0,0xc
  e8:	2d328293          	addi	t0,t0,723 # fffffffffd2d32d3 <__global_pointer$+0xfffffffffd2d18ea>
  ec:	00c29293          	slli	t0,t0,0xc
  f0:	d2d28293          	addi	t0,t0,-723
  f4:	00d29293          	slli	t0,t0,0xd
  f8:	5a528293          	addi	t0,t0,1445
  fc:	00f2c313          	xori	t1,t0,15
 100:	fd2d35b7          	lui	a1,0xfd2d3
 104:	d2d5859b          	addiw	a1,a1,-723
 108:	00c59593          	slli	a1,a1,0xc
 10c:	2d358593          	addi	a1,a1,723 # fffffffffd2d32d3 <__global_pointer$+0xfffffffffd2d18ea>
 110:	00c59593          	slli	a1,a1,0xc
 114:	d2d58593          	addi	a1,a1,-723
 118:	00d59593          	slli	a1,a1,0xd
 11c:	5aa58593          	addi	a1,a1,1450
 120:	0cb31263          	bne	t1,a1,1e4 <_test_finish>
 124:	02d2d2b7          	lui	t0,0x2d2d
 128:	2d32829b          	addiw	t0,t0,723
 12c:	00c29293          	slli	t0,t0,0xc
 130:	d2d28293          	addi	t0,t0,-723 # 2d2cd2d <__global_pointer$+0x2d2b344>
 134:	00c29293          	slli	t0,t0,0xc
 138:	2d328293          	addi	t0,t0,723
 13c:	00d29293          	slli	t0,t0,0xd
 140:	a5a28293          	addi	t0,t0,-1446
 144:	f0f2c313          	xori	t1,t0,-241
 148:	fd2d35b7          	lui	a1,0xfd2d3
 14c:	d2d5859b          	addiw	a1,a1,-723
 150:	00c59593          	slli	a1,a1,0xc
 154:	2d358593          	addi	a1,a1,723 # fffffffffd2d32d3 <__global_pointer$+0xfffffffffd2d18ea>
 158:	00c59593          	slli	a1,a1,0xc
 15c:	d2d58593          	addi	a1,a1,-723
 160:	00d59593          	slli	a1,a1,0xd
 164:	55558593          	addi	a1,a1,1365
 168:	06b31e63          	bne	t1,a1,1e4 <_test_finish>
 16c:	fd2d32b7          	lui	t0,0xfd2d3
 170:	d2d2829b          	addiw	t0,t0,-723
 174:	00c29293          	slli	t0,t0,0xc
 178:	2d328293          	addi	t0,t0,723 # fffffffffd2d32d3 <__global_pointer$+0xfffffffffd2d18ea>
 17c:	00c29293          	slli	t0,t0,0xc
 180:	d2d28293          	addi	t0,t0,-723
 184:	00d29293          	slli	t0,t0,0xd
 188:	5a528293          	addi	t0,t0,1445
 18c:	f0f2c313          	xori	t1,t0,-241
 190:	02d2d5b7          	lui	a1,0x2d2d
 194:	2d35859b          	addiw	a1,a1,723
 198:	00c59593          	slli	a1,a1,0xc
 19c:	d2d58593          	addi	a1,a1,-723 # 2d2cd2d <__global_pointer$+0x2d2b344>
 1a0:	00c59593          	slli	a1,a1,0xc
 1a4:	2d358593          	addi	a1,a1,723
 1a8:	00d59593          	slli	a1,a1,0xd
 1ac:	aaa58593          	addi	a1,a1,-1366
 1b0:	02b31a63          	bne	t1,a1,1e4 <_test_finish>
 1b4:	02d2d2b7          	lui	t0,0x2d2d
 1b8:	2d32829b          	addiw	t0,t0,723
 1bc:	00c29293          	slli	t0,t0,0xc
 1c0:	d2d28293          	addi	t0,t0,-723 # 2d2cd2d <__global_pointer$+0x2d2b344>
 1c4:	00c29293          	slli	t0,t0,0xc
 1c8:	2d328293          	addi	t0,t0,723
 1cc:	00d29293          	slli	t0,t0,0xd
 1d0:	a5a28293          	addi	t0,t0,-1446
 1d4:	00f2c013          	xori	zero,t0,15
 1d8:	00000593          	addi	a1,zero,0
 1dc:	00b01463          	bne	zero,a1,1e4 <_test_finish>
 1e0:	00100513          	addi	a0,zero,1

00000000000001e4 <_test_finish>:
 1e4:	00000067          	jalr	zero,0(zero) # 0 <_start>
	...
