
compiled_test_random.elf:     file format elf64-littleriscv


Disassembly of section .text:

0000000000000000 <_start>:
   0:	0010011b          	addiw	sp,zero,1
   4:	01f11113          	slli	sp,sp,0x1f
   8:	00000413          	li	s0,0
   c:	138000ef          	jal	ra,144 <main>
  10:	00000067          	jr	zero
  14:	0000                	unimp
	...

0000000000000018 <random>:
  18:	fe010113          	addi	sp,sp,-32
  1c:	00813c23          	sd	s0,24(sp)
  20:	02010413          	addi	s0,sp,32
  24:	00050793          	mv	a5,a0
  28:	fef42623          	sw	a5,-20(s0)
  2c:	fec42783          	lw	a5,-20(s0)
  30:	01f7d79b          	srliw	a5,a5,0x1f
  34:	0007871b          	sext.w	a4,a5
  38:	fec42783          	lw	a5,-20(s0)
  3c:	0067d79b          	srliw	a5,a5,0x6
  40:	0007879b          	sext.w	a5,a5
  44:	00f747b3          	xor	a5,a4,a5
  48:	0007871b          	sext.w	a4,a5
  4c:	fec42783          	lw	a5,-20(s0)
  50:	0047d79b          	srliw	a5,a5,0x4
  54:	0007879b          	sext.w	a5,a5
  58:	00f747b3          	xor	a5,a4,a5
  5c:	0007871b          	sext.w	a4,a5
  60:	fec42783          	lw	a5,-20(s0)
  64:	0027d79b          	srliw	a5,a5,0x2
  68:	0007879b          	sext.w	a5,a5
  6c:	00f747b3          	xor	a5,a4,a5
  70:	0007871b          	sext.w	a4,a5
  74:	fec42783          	lw	a5,-20(s0)
  78:	0017d79b          	srliw	a5,a5,0x1
  7c:	0007879b          	sext.w	a5,a5
  80:	00f747b3          	xor	a5,a4,a5
  84:	0007871b          	sext.w	a4,a5
  88:	fec42783          	lw	a5,-20(s0)
  8c:	00e7c7b3          	xor	a5,a5,a4
  90:	0007879b          	sext.w	a5,a5
  94:	01f7979b          	slliw	a5,a5,0x1f
  98:	0007871b          	sext.w	a4,a5
  9c:	fec42783          	lw	a5,-20(s0)
  a0:	0017d79b          	srliw	a5,a5,0x1
  a4:	0007879b          	sext.w	a5,a5
  a8:	00f767b3          	or	a5,a4,a5
  ac:	fef42623          	sw	a5,-20(s0)
  b0:	fec42783          	lw	a5,-20(s0)
  b4:	00078513          	mv	a0,a5
  b8:	01813403          	ld	s0,24(sp)
  bc:	02010113          	addi	sp,sp,32
  c0:	00008067          	ret

00000000000000c4 <random_n>:
  c4:	fd010113          	addi	sp,sp,-48
  c8:	02113423          	sd	ra,40(sp)
  cc:	02813023          	sd	s0,32(sp)
  d0:	03010413          	addi	s0,sp,48
  d4:	00050793          	mv	a5,a0
  d8:	00058713          	mv	a4,a1
  dc:	fcf42e23          	sw	a5,-36(s0)
  e0:	00070793          	mv	a5,a4
  e4:	fcf42c23          	sw	a5,-40(s0)
  e8:	fdc42783          	lw	a5,-36(s0)
  ec:	fef42423          	sw	a5,-24(s0)
  f0:	fe042623          	sw	zero,-20(s0)
  f4:	0240006f          	j	118 <random_n+0x54>
  f8:	fe842783          	lw	a5,-24(s0)
  fc:	00078513          	mv	a0,a5
 100:	018000e7          	jalr	24(zero) # 18 <random>
 104:	00050793          	mv	a5,a0
 108:	fef42423          	sw	a5,-24(s0)
 10c:	fec42783          	lw	a5,-20(s0)
 110:	0017879b          	addiw	a5,a5,1
 114:	fef42623          	sw	a5,-20(s0)
 118:	fec42703          	lw	a4,-20(s0)
 11c:	fd842783          	lw	a5,-40(s0)
 120:	0007071b          	sext.w	a4,a4
 124:	0007879b          	sext.w	a5,a5
 128:	fcf768e3          	bltu	a4,a5,f8 <random_n+0x34>
 12c:	fe842783          	lw	a5,-24(s0)
 130:	00078513          	mv	a0,a5
 134:	02813083          	ld	ra,40(sp)
 138:	02013403          	ld	s0,32(sp)
 13c:	03010113          	addi	sp,sp,48
 140:	00008067          	ret

0000000000000144 <main>:
 144:	fe010113          	addi	sp,sp,-32
 148:	00113c23          	sd	ra,24(sp)
 14c:	00813823          	sd	s0,16(sp)
 150:	02010413          	addi	s0,sp,32
 154:	123457b7          	lui	a5,0x12345
 158:	6787879b          	addiw	a5,a5,1656
 15c:	fef42623          	sw	a5,-20(s0)
 160:	06400793          	li	a5,100
 164:	fef42423          	sw	a5,-24(s0)
 168:	fec42783          	lw	a5,-20(s0)
 16c:	fe842703          	lw	a4,-24(s0)
 170:	00070593          	mv	a1,a4
 174:	00078513          	mv	a0,a5
 178:	0c4000e7          	jalr	196(zero) # c4 <random_n>
 17c:	00050793          	mv	a5,a0
 180:	0007879b          	sext.w	a5,a5
 184:	00078713          	mv	a4,a5
 188:	0f1ad7b7          	lui	a5,0xf1ad
 18c:	a1978793          	addi	a5,a5,-1511 # f1aca19 <__global_pointer$+0xf1ab062>
 190:	40f707b3          	sub	a5,a4,a5
 194:	00f037b3          	snez	a5,a5
 198:	0ff7f793          	andi	a5,a5,255
 19c:	0007879b          	sext.w	a5,a5
 1a0:	00078513          	mv	a0,a5
 1a4:	01813083          	ld	ra,24(sp)
 1a8:	01013403          	ld	s0,16(sp)
 1ac:	02010113          	addi	sp,sp,32
 1b0:	00008067          	ret
 1b4:	0000                	unimp
	...
